; Function Attrs: nounwind uwtable
define zeroext range(i8 0, 2) i8 @l_Std_DHashMap_Internal_AssocList_contains___at_Lean_Linter_UnusedVariables_collectReferences_go___spec__15(ptr noundef %0, ptr noundef %1) local_unnamed_addr #1 {
  br label %3

3:                                                ; preds = %13, %2
  %.011 = phi ptr [ %1, %2 ], [ %17, %13 ]
  %4 = ptrtoint ptr %.011 to i64
  %5 = and i64 %4, 1
  %.not.i = icmp eq i64 %5, 0
  br i1 %.not.i, label %9, label %6

6:                                                ; preds = %3
  %7 = lshr i64 %4, 1
  %8 = trunc i64 %7 to i32
  br label %lean_obj_tag.exit

9:                                                ; preds = %3
  %10 = getelementptr i8, ptr %.011, i64 4
  %.val.i = load i32, ptr %10, align 4
  %11 = lshr i32 %.val.i, 24
  br label %lean_obj_tag.exit

lean_obj_tag.exit:                                ; preds = %6, %9
  %.0.i = phi i32 [ %8, %6 ], [ %11, %9 ]
  %12 = icmp eq i32 %.0.i, 0
  br i1 %12, label %20, label %13

13:                                               ; preds = %lean_obj_tag.exit
  %14 = getelementptr inbounds nuw i8, ptr %.011, i64 8
  %15 = load ptr, ptr %14, align 8, !tbaa !4
  %16 = getelementptr inbounds nuw i8, ptr %.011, i64 24
  %17 = load ptr, ptr %16, align 8, !tbaa !4
  %18 = tail call zeroext i8 @lean_name_eq(ptr noundef %15, ptr noundef %0) #7
  %19 = icmp eq i8 %18, 0
  br i1 %19, label %3, label %20

20:                                               ; preds = %13, %lean_obj_tag.exit
  %.1 = phi i8 [ 1, %13 ], [ 0, %lean_obj_tag.exit ]
  ret i8 %.1
}